; Function Attrs: mustprogress uwtable
define noundef zeroext i1 @_ZNK7rocksdb24AssociativeMergeOperator11FullMergeV2ERKNS_13MergeOperator19MergeOperationInputEPNS1_20MergeOperationOutputE(ptr noundef nonnull align 8 dereferenceable(32) %this, ptr nocapture noundef nonnull readonly align 8 dereferenceable(32) %merge_in, ptr nocapture noundef readonly %merge_out) unnamed_addr #0 align 2 personality ptr @__gxx_personality_v0 {
entry:
  %temp_existing = alloca %"class.rocksdb::Slice", align 8
  %temp_value = alloca %"class.std::__cxx11::basic_string", align 8
  store ptr @.str.5, ptr %temp_existing, align 8
  %size_.i = getelementptr inbounds i8, ptr %temp_existing, i64 8
  store i64 0, ptr %size_.i, align 8
  %operand_list = getelementptr inbounds i8, ptr %merge_in, i64 16
  %0 = load ptr, ptr %operand_list, align 8
  %1 = load ptr, ptr %0, align 8
  %_M_finish.i = getelementptr inbounds i8, ptr %0, i64 8
  %2 = load ptr, ptr %_M_finish.i, align 8
  %cmp.i.not15 = icmp eq ptr %1, %2
  br i1 %cmp.i.not15, label %return, label %for.body.lr.ph

for.body.lr.ph:                                   ; preds = %entry
  %existing_value2 = getelementptr inbounds i8, ptr %merge_in, i64 8
  %3 = load ptr, ptr %existing_value2, align 8
  %logger = getelementptr inbounds i8, ptr %merge_in, i64 24
  br label %for.body

for.body:                                         ; preds = %for.body.lr.ph, %for.inc
  %existing_value.017 = phi ptr [ %3, %for.body.lr.ph ], [ %temp_existing, %for.inc ]
  %__begin1.sroa.0.016 = phi ptr [ %1, %for.body.lr.ph ], [ %incdec.ptr.i, %for.inc ]
  call void @_ZNSt7__cxx1112basic_stringIcSt11char_traitsIcESaIcEEC1Ev(ptr noundef nonnull align 8 dereferenceable(32) %temp_value) #15
  %4 = load ptr, ptr %merge_in, align 8
  %5 = load ptr, ptr %logger, align 8
  %vtable = load ptr, ptr %this, align 8
  %vfn = getelementptr inbounds i8, ptr %vtable, i64 208
  %6 = load ptr, ptr %vfn, align 8
  %call7 = invoke noundef zeroext i1 %6(ptr noundef nonnull align 8 dereferenceable(32) %this, ptr noundef nonnull align 8 dereferenceable(16) %4, ptr noundef %existing_value.017, ptr noundef nonnull align 8 dereferenceable(16) %__begin1.sroa.0.016, ptr noundef nonnull %temp_value, ptr noundef %5)
          to label %invoke.cont unwind label %lpad

invoke.cont:                                      ; preds = %for.body
  br i1 %call7, label %for.inc, label %cleanup

lpad:                                             ; preds = %for.body
  %7 = landingpad { ptr, i32 }
          cleanup
  call void @_ZNSt7__cxx1112basic_stringIcSt11char_traitsIcESaIcEED1Ev(ptr noundef nonnull align 8 dereferenceable(32) %temp_value) #15
  resume { ptr, i32 } %7

cleanup:                                          ; preds = %invoke.cont
  call void @_ZNSt7__cxx1112basic_stringIcSt11char_traitsIcESaIcEED1Ev(ptr noundef nonnull align 8 dereferenceable(32) %temp_value) #15
  br label %return

for.inc:                                          ; preds = %invoke.cont
  %8 = load ptr, ptr %merge_out, align 8
  call void @_ZNSt7__cxx1112basic_stringIcSt11char_traitsIcESaIcEE4swapERS4_(ptr noundef nonnull align 8 dereferenceable(32) %temp_value, ptr noundef nonnull align 8 dereferenceable(32) %8) #15
  %9 = load ptr, ptr %merge_out, align 8
  %call.i = call noundef ptr @_ZNKSt7__cxx1112basic_stringIcSt11char_traitsIcESaIcEE4dataEv(ptr noundef nonnull align 8 dereferenceable(32) %9) #15
  %call2.i = call noundef i64 @_ZNKSt7__cxx1112basic_stringIcSt11char_traitsIcESaIcEE4sizeEv(ptr noundef nonnull align 8 dereferenceable(32) %9) #15
  store ptr %call.i, ptr %temp_existing, align 8
  store i64 %call2.i, ptr %size_.i, align 8
  call void @_ZNSt7__cxx1112basic_stringIcSt11char_traitsIcESaIcEED1Ev(ptr noundef nonnull align 8 dereferenceable(32) %temp_value) #15
  %incdec.ptr.i = getelementptr inbounds i8, ptr %__begin1.sroa.0.016, i64 16
  %cmp.i.not = icmp eq ptr %incdec.ptr.i, %2
  br i1 %cmp.i.not, label %return, label %for.body

return:                                           ; preds = %for.inc, %entry, %cleanup
  %cmp.i.not14 = phi i1 [ false, %cleanup ], [ true, %entry ], [ true, %for.inc ]
  ret i1 %cmp.i.not14
}